; Function Attrs: inlinehint nounwind uwtable
define internal void @_ZThn32_N7rocksdb12_GLOBAL__N_122BytewiseComparatorImplD1Ev(ptr noundef captures(none) initializes((-32, -24)) %0) unnamed_addr #12 align 2 personality ptr @__gxx_personality_v0 {
  %2 = getelementptr inbounds i8, ptr %0, i64 -32
  store ptr getelementptr inbounds nuw inrange(-16, 112) (i8, ptr @_ZTVN7rocksdb12ConfigurableE, i64 16), ptr %2, align 8, !tbaa !19
  %3 = getelementptr inbounds i8, ptr %0, i64 -24
  %4 = load ptr, ptr %3, align 8, !tbaa !113
  %5 = getelementptr inbounds i8, ptr %0, i64 -16
  %6 = load ptr, ptr %5, align 8, !tbaa !114
  %.not4.i.i.i.i.i.i = icmp eq ptr %4, %6
  br i1 %.not4.i.i.i.i.i.i, label %_ZSt8_DestroyIPN7rocksdb12Configurable17RegisteredOptionsES2_EvT_S4_RSaIT0_E.exit.i.i.i, label %.lr.ph.i.i.i.i.i.i

.lr.ph.i.i.i.i.i.i:                               ; preds = %1, %_ZSt8_DestroyIN7rocksdb12Configurable17RegisteredOptionsEEvPT_.exit.i.i.i.i.i.i
  %.05.i.i.i.i.i.i = phi ptr [ %15, %_ZSt8_DestroyIN7rocksdb12Configurable17RegisteredOptionsEEvPT_.exit.i.i.i.i.i.i ], [ %4, %1 ]
  %7 = load ptr, ptr %.05.i.i.i.i.i.i, align 8, !tbaa !42
  %8 = getelementptr inbounds nuw i8, ptr %.05.i.i.i.i.i.i, i64 16
  %9 = icmp eq ptr %7, %8
  br i1 %9, label %_ZNKSt7__cxx1112basic_stringIcSt11char_traitsIcESaIcEE11_M_is_localEv.exit.thread.i.i.i.i.i.i.i.i.i.i, label %_ZNKSt7__cxx1112basic_stringIcSt11char_traitsIcESaIcEE11_M_is_localEv.exit.i.i.i.i.i.i.i.i.i.i

_ZNKSt7__cxx1112basic_stringIcSt11char_traitsIcESaIcEE11_M_is_localEv.exit.thread.i.i.i.i.i.i.i.i.i.i: ; preds = %.lr.ph.i.i.i.i.i.i
  %10 = getelementptr inbounds nuw i8, ptr %.05.i.i.i.i.i.i, i64 8
  %11 = load i64, ptr %10, align 8, !tbaa !39
  %12 = icmp ult i64 %11, 16
  tail call void @llvm.assume(i1 %12)
  br label %_ZSt8_DestroyIN7rocksdb12Configurable17RegisteredOptionsEEvPT_.exit.i.i.i.i.i.i

_ZNKSt7__cxx1112basic_stringIcSt11char_traitsIcESaIcEE11_M_is_localEv.exit.i.i.i.i.i.i.i.i.i.i: ; preds = %.lr.ph.i.i.i.i.i.i
  %13 = load i64, ptr %8, align 8, !tbaa !45
  %14 = add i64 %13, 1
  tail call void @_ZdlPvm(ptr noundef %7, i64 noundef %14) #30
  br label %_ZSt8_DestroyIN7rocksdb12Configurable17RegisteredOptionsEEvPT_.exit.i.i.i.i.i.i

_ZSt8_DestroyIN7rocksdb12Configurable17RegisteredOptionsEEvPT_.exit.i.i.i.i.i.i: ; preds = %_ZNKSt7__cxx1112basic_stringIcSt11char_traitsIcESaIcEE11_M_is_localEv.exit.i.i.i.i.i.i.i.i.i.i, %_ZNKSt7__cxx1112basic_stringIcSt11char_traitsIcESaIcEE11_M_is_localEv.exit.thread.i.i.i.i.i.i.i.i.i.i
  %15 = getelementptr inbounds nuw i8, ptr %.05.i.i.i.i.i.i, i64 48
  %.not.i.i.i.i.i.i = icmp eq ptr %15, %6
  br i1 %.not.i.i.i.i.i.i, label %_ZSt8_DestroyIPN7rocksdb12Configurable17RegisteredOptionsES2_EvT_S4_RSaIT0_E.exitthread-pre-split.i.i.i, label %.lr.ph.i.i.i.i.i.i, !llvm.loop !115

_ZSt8_DestroyIPN7rocksdb12Configurable17RegisteredOptionsES2_EvT_S4_RSaIT0_E.exitthread-pre-split.i.i.i: ; preds = %_ZSt8_DestroyIN7rocksdb12Configurable17RegisteredOptionsEEvPT_.exit.i.i.i.i.i.i
  %.pr.i.i.i = load ptr, ptr %3, align 8, !tbaa !113
  br label %_ZSt8_DestroyIPN7rocksdb12Configurable17RegisteredOptionsES2_EvT_S4_RSaIT0_E.exit.i.i.i

_ZSt8_DestroyIPN7rocksdb12Configurable17RegisteredOptionsES2_EvT_S4_RSaIT0_E.exit.i.i.i: ; preds = %_ZSt8_DestroyIPN7rocksdb12Configurable17RegisteredOptionsES2_EvT_S4_RSaIT0_E.exitthread-pre-split.i.i.i, %1
  %16 = phi ptr [ %.pr.i.i.i, %_ZSt8_DestroyIPN7rocksdb12Configurable17RegisteredOptionsES2_EvT_S4_RSaIT0_E.exitthread-pre-split.i.i.i ], [ %4, %1 ]
  %.not.i.i.i.i.i = icmp eq ptr %16, null
  br i1 %.not.i.i.i.i.i, label %_ZN7rocksdb10ComparatorD2Ev.exit, label %17

17:                                               ; preds = %_ZSt8_DestroyIPN7rocksdb12Configurable17RegisteredOptionsES2_EvT_S4_RSaIT0_E.exit.i.i.i
  %18 = getelementptr inbounds i8, ptr %0, i64 -8
  %19 = load ptr, ptr %18, align 8, !tbaa !116
  %20 = ptrtoint ptr %19 to i64
  %21 = ptrtoint ptr %16 to i64
  %22 = sub i64 %20, %21
  tail call void @_ZdlPvm(ptr noundef nonnull %16, i64 noundef %22) #30
  br label %_ZN7rocksdb10ComparatorD2Ev.exit

_ZN7rocksdb10ComparatorD2Ev.exit:                 ; preds = %_ZSt8_DestroyIPN7rocksdb12Configurable17RegisteredOptionsES2_EvT_S4_RSaIT0_E.exit.i.i.i, %17
  ret void
}